; ModuleID = '50/2504.cpp'
source_filename = "50/2504.cpp"
target datalayout = "e-m:e-p270:32:32-p271:32:32-p272:64:64-i64:64-f80:128-n8:16:32:64-S128"
target triple = "x86_64-pc-linux-gnu"

%"class.std::ios_base::Init" = type { i8 }
%"class.std::basic_istream" = type { i32 (...)**, i64, %"class.std::basic_ios" }
%"class.std::basic_ios" = type { %"class.std::ios_base", %"class.std::basic_ostream"*, i8, i8, %"class.std::basic_streambuf"*, %"class.std::ctype"*, %"class.std::num_put"*, %"class.std::num_get"* }
%"class.std::ios_base" = type { i32 (...)**, i64, i64, i32, i32, i32, %"struct.std::ios_base::_Callback_list"*, %"struct.std::ios_base::_Words", [8 x %"struct.std::ios_base::_Words"], i32, %"struct.std::ios_base::_Words"*, %"class.std::locale" }
%"struct.std::ios_base::_Callback_list" = type { %"struct.std::ios_base::_Callback_list"*, void (i32, %"class.std::ios_base"*, i32)*, i32, i32 }
%"struct.std::ios_base::_Words" = type { i8*, i64 }
%"class.std::locale" = type { %"class.std::locale::_Impl"* }
%"class.std::locale::_Impl" = type { i32, %"class.std::locale::facet"**, i64, %"class.std::locale::facet"**, i8** }
%"class.std::locale::facet" = type <{ i32 (...)**, i32, [4 x i8] }>
%"class.std::basic_ostream" = type { i32 (...)**, %"class.std::basic_ios" }
%"class.std::basic_streambuf" = type { i32 (...)**, i8*, i8*, i8*, i8*, i8*, i8*, %"class.std::locale" }
%"class.std::ctype" = type <{ %"class.std::locale::facet.base", [4 x i8], %struct.__locale_struct*, i8, [7 x i8], i32*, i32*, i16*, i8, [256 x i8], [256 x i8], i8, [6 x i8] }>
%"class.std::locale::facet.base" = type <{ i32 (...)**, i32 }>
%struct.__locale_struct = type { [13 x %struct.__locale_data*], i16*, i32*, i32*, [13 x i8*] }
%struct.__locale_data = type opaque
%"class.std::num_put" = type { %"class.std::locale::facet.base", [4 x i8] }
%"class.std::num_get" = type { %"class.std::locale::facet.base", [4 x i8] }

@_ZStL8__ioinit = internal global %"class.std::ios_base::Init" zeroinitializer, align 1
@__dso_handle = external hidden global i8
@_ZSt3cin = external dso_local global %"class.std::basic_istream", align 8
@_ZSt4cout = external dso_local global %"class.std::basic_ostream", align 8
@llvm.global_ctors = appending global [1 x { i32, void ()*, i8* }] [{ i32, void ()*, i8* } { i32 65535, void ()* @_GLOBAL__sub_I_2504.cpp, i8* null }]

; Function Attrs: noinline uwtable
define internal void @__cxx_global_var_init() #0 section ".text.startup" {
  call void @_ZNSt8ios_base4InitC1Ev(%"class.std::ios_base::Init"* @_ZStL8__ioinit)
  %1 = call i32 @__cxa_atexit(void (i8*)* bitcast (void (%"class.std::ios_base::Init"*)* @_ZNSt8ios_base4InitD1Ev to void (i8*)*), i8* getelementptr inbounds (%"class.std::ios_base::Init", %"class.std::ios_base::Init"* @_ZStL8__ioinit, i32 0, i32 0), i8* @__dso_handle) #3
  ret void
}

declare dso_local void @_ZNSt8ios_base4InitC1Ev(%"class.std::ios_base::Init"*) unnamed_addr #1

; Function Attrs: nounwind
declare dso_local void @_ZNSt8ios_base4InitD1Ev(%"class.std::ios_base::Init"*) unnamed_addr #2

; Function Attrs: nounwind
declare dso_local i32 @__cxa_atexit(void (i8*)*, i8*, i8*) #3

; Function Attrs: noinline norecurse uwtable
define dso_local i32 @main() #4 {
  %1 = alloca i32, align 4
  %2 = alloca i32, align 4
  %3 = alloca [13 x i32], align 16
  %4 = alloca [13 x i32], align 16
  %5 = alloca i32, align 4
  %6 = alloca i32, align 4
  store i32 0, i32* %1, align 4
  %7 = call dereferenceable(280) %"class.std::basic_istream"* @_ZNSirsERi(%"class.std::basic_istream"* @_ZSt3cin, i32* dereferenceable(4) %2)
  %8 = getelementptr inbounds [13 x i32], [13 x i32]* %3, i64 0, i64 0
  store i32 0, i32* %8, align 16
  %9 = getelementptr inbounds [13 x i32], [13 x i32]* %4, i64 0, i64 0
  store i32 0, i32* %9, align 16
  %10 = getelementptr inbounds [13 x i32], [13 x i32]* %4, i64 0, i64 1
  store i32 31, i32* %10, align 4
  %11 = getelementptr inbounds [13 x i32], [13 x i32]* %4, i64 0, i64 3
  store i32 31, i32* %11, align 4
  %12 = getelementptr inbounds [13 x i32], [13 x i32]* %4, i64 0, i64 5
  store i32 31, i32* %12, align 4
  %13 = getelementptr inbounds [13 x i32], [13 x i32]* %4, i64 0, i64 7
  store i32 31, i32* %13, align 4
  %14 = getelementptr inbounds [13 x i32], [13 x i32]* %4, i64 0, i64 8
  store i32 31, i32* %14, align 16
  %15 = getelementptr inbounds [13 x i32], [13 x i32]* %4, i64 0, i64 10
  store i32 31, i32* %15, align 8
  %16 = getelementptr inbounds [13 x i32], [13 x i32]* %4, i64 0, i64 12
  store i32 31, i32* %16, align 16
  %17 = getelementptr inbounds [13 x i32], [13 x i32]* %4, i64 0, i64 4
  store i32 30, i32* %17, align 16
  %18 = getelementptr inbounds [13 x i32], [13 x i32]* %4, i64 0, i64 6
  store i32 30, i32* %18, align 8
  %19 = getelementptr inbounds [13 x i32], [13 x i32]* %4, i64 0, i64 9
  store i32 30, i32* %19, align 4
  %20 = getelementptr inbounds [13 x i32], [13 x i32]* %4, i64 0, i64 11
  store i32 30, i32* %20, align 4
  %21 = getelementptr inbounds [13 x i32], [13 x i32]* %4, i64 0, i64 2
  store i32 28, i32* %21, align 8
  store i32 1, i32* %5, align 4
  br label %22

22:                                               ; preds = %49, %0
  %23 = load i32, i32* %5, align 4
  %24 = icmp sle i32 %23, 12
  br i1 %24, label %25, label %52

25:                                               ; preds = %22
  store i32 1, i32* %6, align 4
  br label %26

26:                                               ; preds = %45, %25
  %27 = load i32, i32* %6, align 4
  %28 = load i32, i32* %5, align 4
  %29 = icmp sle i32 %27, %28
  br i1 %29, label %30, label %48

30:                                               ; preds = %26
  %31 = load i32, i32* %6, align 4
  %32 = sub nsw i32 %31, 1
  %33 = sext i32 %32 to i64
  %34 = getelementptr inbounds [13 x i32], [13 x i32]* %3, i64 0, i64 %33
  %35 = load i32, i32* %34, align 4
  %36 = load i32, i32* %6, align 4
  %37 = sub nsw i32 %36, 1
  %38 = sext i32 %37 to i64
  %39 = getelementptr inbounds [13 x i32], [13 x i32]* %4, i64 0, i64 %38
  %40 = load i32, i32* %39, align 4
  %41 = add nsw i32 %35, %40
  %42 = load i32, i32* %6, align 4
  %43 = sext i32 %42 to i64
  %44 = getelementptr inbounds [13 x i32], [13 x i32]* %3, i64 0, i64 %43
  store i32 %41, i32* %44, align 4
  br label %45

45:                                               ; preds = %30
  %46 = load i32, i32* %6, align 4
  %47 = add nsw i32 %46, 1
  store i32 %47, i32* %6, align 4
  br label %26

48:                                               ; preds = %26
  br label %49

49:                                               ; preds = %48
  %50 = load i32, i32* %5, align 4
  %51 = add nsw i32 %50, 1
  store i32 %51, i32* %5, align 4
  br label %22

52:                                               ; preds = %22
  store i32 1, i32* %5, align 4
  br label %53

53:                                               ; preds = %65, %52
  %54 = load i32, i32* %5, align 4
  %55 = icmp sle i32 %54, 12
  br i1 %55, label %56, label %68

56:                                               ; preds = %53
  %57 = load i32, i32* %5, align 4
  %58 = sext i32 %57 to i64
  %59 = getelementptr inbounds [13 x i32], [13 x i32]* %3, i64 0, i64 %58
  %60 = load i32, i32* %59, align 4
  %61 = add nsw i32 %60, 12
  %62 = load i32, i32* %5, align 4
  %63 = sext i32 %62 to i64
  %64 = getelementptr inbounds [13 x i32], [13 x i32]* %3, i64 0, i64 %63
  store i32 %61, i32* %64, align 4
  br label %65

65:                                               ; preds = %56
  %66 = load i32, i32* %5, align 4
  %67 = add nsw i32 %66, 1
  store i32 %67, i32* %5, align 4
  br label %53

68:                                               ; preds = %53
  store i32 1, i32* %5, align 4
  br label %69

69:                                               ; preds = %87, %68
  %70 = load i32, i32* %5, align 4
  %71 = icmp sle i32 %70, 12
  br i1 %71, label %72, label %90

72:                                               ; preds = %69
  %73 = load i32, i32* %2, align 4
  %74 = load i32, i32* %5, align 4
  %75 = sext i32 %74 to i64
  %76 = getelementptr inbounds [13 x i32], [13 x i32]* %3, i64 0, i64 %75
  %77 = load i32, i32* %76, align 4
  %78 = add nsw i32 %73, %77
  %79 = srem i32 %78, 7
  %80 = icmp eq i32 %79, 5
  br i1 %80, label %81, label %85

81:                                               ; preds = %72
  %82 = load i32, i32* %5, align 4
  %83 = call dereferenceable(272) %"class.std::basic_ostream"* @_ZNSolsEi(%"class.std::basic_ostream"* @_ZSt4cout, i32 %82)
  %84 = call dereferenceable(272) %"class.std::basic_ostream"* @_ZNSolsEPFRSoS_E(%"class.std::basic_ostream"* %83, %"class.std::basic_ostream"* (%"class.std::basic_ostream"*)* @_ZSt4endlIcSt11char_traitsIcEERSt13basic_ostreamIT_T0_ES6_)
  br label %86

85:                                               ; preds = %72
  br label %87

86:                                               ; preds = %81
  br label %87

87:                                               ; preds = %86, %85
  %88 = load i32, i32* %5, align 4
  %89 = add nsw i32 %88, 1
  store i32 %89, i32* %5, align 4
  br label %69

90:                                               ; preds = %69
  %91 = load i32, i32* %1, align 4
  ret i32 %91
}

declare dso_local dereferenceable(280) %"class.std::basic_istream"* @_ZNSirsERi(%"class.std::basic_istream"*, i32* dereferenceable(4)) #1

declare dso_local dereferenceable(272) %"class.std::basic_ostream"* @_ZNSolsEi(%"class.std::basic_ostream"*, i32) #1

declare dso_local dereferenceable(272) %"class.std::basic_ostream"* @_ZNSolsEPFRSoS_E(%"class.std::basic_ostream"*, %"class.std::basic_ostream"* (%"class.std::basic_ostream"*)*) #1

declare dso_local dereferenceable(272) %"class.std::basic_ostream"* @_ZSt4endlIcSt11char_traitsIcEERSt13basic_ostreamIT_T0_ES6_(%"class.std::basic_ostream"* dereferenceable(272)) #1

; Function Attrs: noinline uwtable
define internal void @_GLOBAL__sub_I_2504.cpp() #0 section ".text.startup" {
  call void @__cxx_global_var_init()
  ret void
}


!llvm.module.flags = !{!0}
!llvm.ident = !{!1}

!0 = !{i32 1, !"wchar_size", i32 4}
!1 = !{!"clang version 10.0.0-4ubuntu1 "}
